; Function Attrs: mustprogress nofree norecurse nosync nounwind willreturn memory(read, inaccessiblemem: none) uwtable
define noundef i64 @_ZNK3gmx8internal23AnalysisDataStorageImpl18endStorageLocationEv(ptr nocapture noundef nonnull readonly align 8 dereferenceable(92) %0) local_unnamed_addr #4 align 2 {
  %2 = getelementptr inbounds i8, ptr %0, i64 16
  %3 = load i32, ptr %2, align 8
  %4 = icmp eq i32 %3, 2147483647
  %5 = getelementptr inbounds i8, ptr %0, i64 24
  br i1 %4, label %6, label %14

6:                                                ; preds = %1
  %7 = getelementptr inbounds i8, ptr %0, i64 32
  %8 = load ptr, ptr %7, align 8
  %9 = load ptr, ptr %5, align 8
  %10 = ptrtoint ptr %8 to i64
  %11 = ptrtoint ptr %9 to i64
  %12 = sub i64 %10, %11
  %13 = ashr exact i64 %12, 3
  br label %34

14:                                               ; preds = %1
  %15 = load ptr, ptr %5, align 8
  %16 = load ptr, ptr %15, align 8
  %17 = getelementptr inbounds i8, ptr %16, i64 8
  %18 = load i32, ptr %17, align 4
  %19 = icmp eq i32 %18, 0
  br i1 %19, label %24, label %20

20:                                               ; preds = %14
  %21 = getelementptr inbounds i8, ptr %0, i64 48
  %22 = load i64, ptr %21, align 8
  %23 = icmp eq i64 %22, 0
  br i1 %23, label %24, label %32

24:                                               ; preds = %20, %14
  %25 = getelementptr inbounds i8, ptr %0, i64 32
  %26 = load ptr, ptr %25, align 8
  %27 = ptrtoint ptr %26 to i64
  %28 = ptrtoint ptr %15 to i64
  %29 = sub i64 %27, %28
  %30 = ashr exact i64 %29, 3
  %31 = add nsw i64 %30, -1
  br label %34

32:                                               ; preds = %20
  %33 = add i64 %22, -1
  br label %34

34:                                               ; preds = %32, %24, %6
  %.0 = phi i64 [ %13, %6 ], [ %31, %24 ], [ %33, %32 ]
  ret i64 %.0
}